; ModuleID = 'source-C-CXX/11/1299.cpp'
source_filename = "source-C-CXX/11/1299.cpp"
target datalayout = "e-m:e-p270:32:32-p271:32:32-p272:64:64-i64:64-f80:128-n8:16:32:64-S128"
target triple = "x86_64-pc-linux-gnu"

%"class.std::ios_base::Init" = type { i8 }
%"class.std::basic_istream" = type { i32 (...)**, i64, %"class.std::basic_ios" }
%"class.std::basic_ios" = type { %"class.std::ios_base", %"class.std::basic_ostream"*, i8, i8, %"class.std::basic_streambuf"*, %"class.std::ctype"*, %"class.std::num_put"*, %"class.std::num_get"* }
%"class.std::ios_base" = type { i32 (...)**, i64, i64, i32, i32, i32, %"struct.std::ios_base::_Callback_list"*, %"struct.std::ios_base::_Words", [8 x %"struct.std::ios_base::_Words"], i32, %"struct.std::ios_base::_Words"*, %"class.std::locale" }
%"struct.std::ios_base::_Callback_list" = type { %"struct.std::ios_base::_Callback_list"*, void (i32, %"class.std::ios_base"*, i32)*, i32, i32 }
%"struct.std::ios_base::_Words" = type { i8*, i64 }
%"class.std::locale" = type { %"class.std::locale::_Impl"* }
%"class.std::locale::_Impl" = type { i32, %"class.std::locale::facet"**, i64, %"class.std::locale::facet"**, i8** }
%"class.std::locale::facet" = type <{ i32 (...)**, i32, [4 x i8] }>
%"class.std::basic_ostream" = type { i32 (...)**, %"class.std::basic_ios" }
%"class.std::basic_streambuf" = type { i32 (...)**, i8*, i8*, i8*, i8*, i8*, i8*, %"class.std::locale" }
%"class.std::ctype" = type <{ %"class.std::locale::facet.base", [4 x i8], %struct.__locale_struct*, i8, [7 x i8], i32*, i32*, i16*, i8, [256 x i8], [256 x i8], i8, [6 x i8] }>
%"class.std::locale::facet.base" = type <{ i32 (...)**, i32 }>
%struct.__locale_struct = type { [13 x %struct.__locale_data*], i16*, i32*, i32*, [13 x i8*] }
%struct.__locale_data = type opaque
%"class.std::num_put" = type { %"class.std::locale::facet.base", [4 x i8] }
%"class.std::num_get" = type { %"class.std::locale::facet.base", [4 x i8] }

@_ZStL8__ioinit = internal global %"class.std::ios_base::Init" zeroinitializer, align 1
@__dso_handle = external hidden global i8
@_ZSt3cin = external global %"class.std::basic_istream", align 8
@_ZSt4cout = external global %"class.std::basic_ostream", align 8
@llvm.global_ctors = appending global [1 x { i32, void ()*, i8* }] [{ i32, void ()*, i8* } { i32 65535, void ()* @_GLOBAL__sub_I_1299.cpp, i8* null }]

declare void @_ZNSt8ios_base4InitC1Ev(%"class.std::ios_base::Init"* nonnull align 1 dereferenceable(1)) unnamed_addr #0

; Function Attrs: nounwind
declare void @_ZNSt8ios_base4InitD1Ev(%"class.std::ios_base::Init"* nonnull align 1 dereferenceable(1)) unnamed_addr #1

; Function Attrs: nofree nounwind
declare i32 @__cxa_atexit(void (i8*)*, i8*, i8*) local_unnamed_addr #2

; Function Attrs: mustprogress norecurse sspstrong uwtable
define dso_local i32 @main() local_unnamed_addr #3 {
  %1 = alloca [15 x i32], align 16
  %2 = bitcast [15 x i32]* %1 to i8*
  call void @llvm.lifetime.start.p0i8(i64 60, i8* nonnull %2) #8
  %3 = getelementptr inbounds [15 x i32], [15 x i32]* %1, i64 0, i64 0
  %4 = call nonnull align 8 dereferenceable(16) %"class.std::basic_istream"* @_ZNSirsERi(%"class.std::basic_istream"* nonnull align 8 dereferenceable(16) @_ZSt3cin, i32* nonnull align 4 dereferenceable(4) %3)
  %5 = load i32, i32* %3, align 16, !tbaa !5
  %6 = icmp eq i32 %5, -1
  br i1 %6, label %157, label %7

7:                                                ; preds = %0, %155
  %8 = phi i32 [ %153, %155 ], [ %5, %0 ]
  %9 = phi i32 [ %156, %155 ], [ %5, %0 ]
  %10 = phi i32 [ %149, %155 ], [ 0, %0 ]
  %11 = icmp eq i32 %9, 0
  br i1 %11, label %12, label %147

12:                                               ; preds = %7
  %13 = icmp sgt i32 %10, 0
  br i1 %13, label %14, label %115

14:                                               ; preds = %12
  %15 = zext i32 %10 to i64
  %16 = and i64 %15, 4294967288
  %17 = add nsw i64 %16, -8
  %18 = lshr exact i64 %17, 3
  %19 = add nuw nsw i64 %18, 1
  %20 = icmp ult i32 %10, 8
  %21 = and i64 %15, 4294967288
  %22 = and i64 %19, 1
  %23 = icmp eq i64 %17, 0
  %24 = and i64 %19, 4611686018427387902
  %25 = icmp eq i64 %22, 0
  %26 = icmp eq i64 %21, %15
  br label %27

27:                                               ; preds = %112, %14
  %28 = phi i32 [ %8, %14 ], [ %114, %112 ]
  %29 = phi i64 [ 0, %14 ], [ %110, %112 ]
  %30 = phi i32 [ 0, %14 ], [ %109, %112 ]
  %31 = shl nsw i32 %28, 1
  br i1 %20, label %95, label %32

32:                                               ; preds = %27
  %33 = insertelement <4 x i32> <i32 poison, i32 0, i32 0, i32 0>, i32 %30, i32 0
  %34 = insertelement <4 x i32> poison, i32 %31, i32 0
  %35 = shufflevector <4 x i32> %34, <4 x i32> poison, <4 x i32> zeroinitializer
  %36 = insertelement <4 x i32> poison, i32 %31, i32 0
  %37 = shufflevector <4 x i32> %36, <4 x i32> poison, <4 x i32> zeroinitializer
  br i1 %23, label %71, label %38

38:                                               ; preds = %32, %38
  %39 = phi i64 [ %68, %38 ], [ 0, %32 ]
  %40 = phi <4 x i32> [ %66, %38 ], [ %33, %32 ]
  %41 = phi <4 x i32> [ %67, %38 ], [ zeroinitializer, %32 ]
  %42 = phi i64 [ %69, %38 ], [ %24, %32 ]
  %43 = getelementptr inbounds [15 x i32], [15 x i32]* %1, i64 0, i64 %39
  %44 = bitcast i32* %43 to <4 x i32>*
  %45 = load <4 x i32>, <4 x i32>* %44, align 16, !tbaa !5
  %46 = getelementptr inbounds i32, i32* %43, i64 4
  %47 = bitcast i32* %46 to <4 x i32>*
  %48 = load <4 x i32>, <4 x i32>* %47, align 16, !tbaa !5
  %49 = icmp eq <4 x i32> %45, %35
  %50 = icmp eq <4 x i32> %48, %37
  %51 = zext <4 x i1> %49 to <4 x i32>
  %52 = zext <4 x i1> %50 to <4 x i32>
  %53 = add <4 x i32> %40, %51
  %54 = add <4 x i32> %41, %52
  %55 = or i64 %39, 8
  %56 = getelementptr inbounds [15 x i32], [15 x i32]* %1, i64 0, i64 %55
  %57 = bitcast i32* %56 to <4 x i32>*
  %58 = load <4 x i32>, <4 x i32>* %57, align 16, !tbaa !5
  %59 = getelementptr inbounds i32, i32* %56, i64 4
  %60 = bitcast i32* %59 to <4 x i32>*
  %61 = load <4 x i32>, <4 x i32>* %60, align 16, !tbaa !5
  %62 = icmp eq <4 x i32> %58, %35
  %63 = icmp eq <4 x i32> %61, %37
  %64 = zext <4 x i1> %62 to <4 x i32>
  %65 = zext <4 x i1> %63 to <4 x i32>
  %66 = add <4 x i32> %53, %64
  %67 = add <4 x i32> %54, %65
  %68 = add nuw i64 %39, 16
  %69 = add i64 %42, -2
  %70 = icmp eq i64 %69, 0
  br i1 %70, label %71, label %38, !llvm.loop !9

71:                                               ; preds = %38, %32
  %72 = phi <4 x i32> [ undef, %32 ], [ %66, %38 ]
  %73 = phi <4 x i32> [ undef, %32 ], [ %67, %38 ]
  %74 = phi i64 [ 0, %32 ], [ %68, %38 ]
  %75 = phi <4 x i32> [ %33, %32 ], [ %66, %38 ]
  %76 = phi <4 x i32> [ zeroinitializer, %32 ], [ %67, %38 ]
  br i1 %25, label %90, label %77

77:                                               ; preds = %71
  %78 = getelementptr inbounds [15 x i32], [15 x i32]* %1, i64 0, i64 %74
  %79 = getelementptr inbounds i32, i32* %78, i64 4
  %80 = bitcast i32* %79 to <4 x i32>*
  %81 = load <4 x i32>, <4 x i32>* %80, align 16, !tbaa !5
  %82 = icmp eq <4 x i32> %81, %37
  %83 = zext <4 x i1> %82 to <4 x i32>
  %84 = add <4 x i32> %76, %83
  %85 = bitcast i32* %78 to <4 x i32>*
  %86 = load <4 x i32>, <4 x i32>* %85, align 16, !tbaa !5
  %87 = icmp eq <4 x i32> %86, %35
  %88 = zext <4 x i1> %87 to <4 x i32>
  %89 = add <4 x i32> %75, %88
  br label %90

90:                                               ; preds = %71, %77
  %91 = phi <4 x i32> [ %72, %71 ], [ %89, %77 ]
  %92 = phi <4 x i32> [ %73, %71 ], [ %84, %77 ]
  %93 = add <4 x i32> %92, %91
  %94 = call i32 @llvm.vector.reduce.add.v4i32(<4 x i32> %93)
  br i1 %26, label %108, label %95

95:                                               ; preds = %27, %90
  %96 = phi i64 [ 0, %27 ], [ %21, %90 ]
  %97 = phi i32 [ %30, %27 ], [ %94, %90 ]
  br label %98

98:                                               ; preds = %95, %98
  %99 = phi i64 [ %106, %98 ], [ %96, %95 ]
  %100 = phi i32 [ %105, %98 ], [ %97, %95 ]
  %101 = getelementptr inbounds [15 x i32], [15 x i32]* %1, i64 0, i64 %99
  %102 = load i32, i32* %101, align 4, !tbaa !5
  %103 = icmp eq i32 %102, %31
  %104 = zext i1 %103 to i32
  %105 = add nsw i32 %100, %104
  %106 = add nuw nsw i64 %99, 1
  %107 = icmp eq i64 %106, %15
  br i1 %107, label %108, label %98, !llvm.loop !12

108:                                              ; preds = %98, %90
  %109 = phi i32 [ %94, %90 ], [ %105, %98 ]
  %110 = add nuw nsw i64 %29, 1
  %111 = icmp eq i64 %110, %15
  br i1 %111, label %115, label %112, !llvm.loop !14

112:                                              ; preds = %108
  %113 = getelementptr inbounds [15 x i32], [15 x i32]* %1, i64 0, i64 %110
  %114 = load i32, i32* %113, align 4, !tbaa !5
  br label %27

115:                                              ; preds = %108, %12
  %116 = phi i32 [ 0, %12 ], [ %109, %108 ]
  %117 = call nonnull align 8 dereferenceable(8) %"class.std::basic_ostream"* @_ZNSolsEi(%"class.std::basic_ostream"* nonnull align 8 dereferenceable(8) @_ZSt4cout, i32 %116)
  %118 = bitcast %"class.std::basic_ostream"* %117 to i8**
  %119 = load i8*, i8** %118, align 8, !tbaa !15
  %120 = getelementptr i8, i8* %119, i64 -24
  %121 = bitcast i8* %120 to i64*
  %122 = load i64, i64* %121, align 8
  %123 = bitcast %"class.std::basic_ostream"* %117 to i8*
  %124 = add nsw i64 %122, 240
  %125 = getelementptr inbounds i8, i8* %123, i64 %124
  %126 = bitcast i8* %125 to %"class.std::ctype"**
  %127 = load %"class.std::ctype"*, %"class.std::ctype"** %126, align 8, !tbaa !17
  %128 = icmp eq %"class.std::ctype"* %127, null
  br i1 %128, label %129, label %130

129:                                              ; preds = %115
  call void @_ZSt16__throw_bad_castv() #9
  unreachable

130:                                              ; preds = %115
  %131 = getelementptr inbounds %"class.std::ctype", %"class.std::ctype"* %127, i64 0, i32 8
  %132 = load i8, i8* %131, align 8, !tbaa !21
  %133 = icmp eq i8 %132, 0
  br i1 %133, label %137, label %134

134:                                              ; preds = %130
  %135 = getelementptr inbounds %"class.std::ctype", %"class.std::ctype"* %127, i64 0, i32 9, i64 10
  %136 = load i8, i8* %135, align 1, !tbaa !23
  br label %143

137:                                              ; preds = %130
  call void @_ZNKSt5ctypeIcE13_M_widen_initEv(%"class.std::ctype"* nonnull align 8 dereferenceable(570) %127)
  %138 = bitcast %"class.std::ctype"* %127 to i8 (%"class.std::ctype"*, i8)***
  %139 = load i8 (%"class.std::ctype"*, i8)**, i8 (%"class.std::ctype"*, i8)*** %138, align 8, !tbaa !15
  %140 = getelementptr inbounds i8 (%"class.std::ctype"*, i8)*, i8 (%"class.std::ctype"*, i8)** %139, i64 6
  %141 = load i8 (%"class.std::ctype"*, i8)*, i8 (%"class.std::ctype"*, i8)** %140, align 8
  %142 = call signext i8 %141(%"class.std::ctype"* nonnull align 8 dereferenceable(570) %127, i8 signext 10)
  br label %143

143:                                              ; preds = %134, %137
  %144 = phi i8 [ %136, %134 ], [ %142, %137 ]
  %145 = call nonnull align 8 dereferenceable(8) %"class.std::basic_ostream"* @_ZNSo3putEc(%"class.std::basic_ostream"* nonnull align 8 dereferenceable(8) %117, i8 signext %144)
  %146 = call nonnull align 8 dereferenceable(8) %"class.std::basic_ostream"* @_ZNSo5flushEv(%"class.std::basic_ostream"* nonnull align 8 dereferenceable(8) %145)
  br label %147

147:                                              ; preds = %143, %7
  %148 = phi i32 [ -1, %143 ], [ %10, %7 ]
  %149 = add nsw i32 %148, 1
  %150 = sext i32 %149 to i64
  %151 = getelementptr inbounds [15 x i32], [15 x i32]* %1, i64 0, i64 %150
  %152 = call nonnull align 8 dereferenceable(16) %"class.std::basic_istream"* @_ZNSirsERi(%"class.std::basic_istream"* nonnull align 8 dereferenceable(16) @_ZSt3cin, i32* nonnull align 4 dereferenceable(4) %151)
  %153 = load i32, i32* %3, align 16, !tbaa !5
  %154 = icmp eq i32 %153, -1
  br i1 %154, label %157, label %155, !llvm.loop !24

155:                                              ; preds = %147
  %156 = load i32, i32* %151, align 4, !tbaa !5
  br label %7

157:                                              ; preds = %147, %0
  call void @llvm.lifetime.end.p0i8(i64 60, i8* nonnull %2) #8
  ret i32 0
}

; Function Attrs: argmemonly mustprogress nofree nosync nounwind willreturn
declare void @llvm.lifetime.start.p0i8(i64 immarg, i8* nocapture) #4

declare nonnull align 8 dereferenceable(16) %"class.std::basic_istream"* @_ZNSirsERi(%"class.std::basic_istream"* nonnull align 8 dereferenceable(16), i32* nonnull align 4 dereferenceable(4)) local_unnamed_addr #0

declare nonnull align 8 dereferenceable(8) %"class.std::basic_ostream"* @_ZNSolsEi(%"class.std::basic_ostream"* nonnull align 8 dereferenceable(8), i32) local_unnamed_addr #0

; Function Attrs: argmemonly mustprogress nofree nosync nounwind willreturn
declare void @llvm.lifetime.end.p0i8(i64 immarg, i8* nocapture) #4

declare nonnull align 8 dereferenceable(8) %"class.std::basic_ostream"* @_ZNSo3putEc(%"class.std::basic_ostream"* nonnull align 8 dereferenceable(8), i8 signext) local_unnamed_addr #0

declare nonnull align 8 dereferenceable(8) %"class.std::basic_ostream"* @_ZNSo5flushEv(%"class.std::basic_ostream"* nonnull align 8 dereferenceable(8)) local_unnamed_addr #0

; Function Attrs: noreturn
declare void @_ZSt16__throw_bad_castv() local_unnamed_addr #5

declare void @_ZNKSt5ctypeIcE13_M_widen_initEv(%"class.std::ctype"* nonnull align 8 dereferenceable(570)) local_unnamed_addr #0

; Function Attrs: sspstrong uwtable
define internal void @_GLOBAL__sub_I_1299.cpp() #6 section ".text.startup" {
  tail call void @_ZNSt8ios_base4InitC1Ev(%"class.std::ios_base::Init"* nonnull align 1 dereferenceable(1) @_ZStL8__ioinit)
  %1 = tail call i32 @__cxa_atexit(void (i8*)* bitcast (void (%"class.std::ios_base::Init"*)* @_ZNSt8ios_base4InitD1Ev to void (i8*)*), i8* getelementptr inbounds (%"class.std::ios_base::Init", %"class.std::ios_base::Init"* @_ZStL8__ioinit, i64 0, i32 0), i8* nonnull @__dso_handle) #8
  ret void
}

; Function Attrs: nofree nosync nounwind readnone willreturn
declare i32 @llvm.vector.reduce.add.v4i32(<4 x i32>) #7


!llvm.module.flags = !{!0, !1, !2, !3}
!llvm.ident = !{!4}

!0 = !{i32 1, !"wchar_size", i32 4}
!1 = !{i32 7, !"PIC Level", i32 2}
!2 = !{i32 7, !"PIE Level", i32 2}
!3 = !{i32 7, !"uwtable", i32 1}
!4 = !{!"clang version 13.0.0"}
!5 = !{!6, !6, i64 0}
!6 = !{!"int", !7, i64 0}
!7 = !{!"omnipotent char", !8, i64 0}
!8 = !{!"Simple C++ TBAA"}
!9 = distinct !{!9, !10, !11}
!10 = !{!"llvm.loop.mustprogress"}
!11 = !{!"llvm.loop.isvectorized", i32 1}
!12 = distinct !{!12, !10, !13, !11}
!13 = !{!"llvm.loop.unroll.runtime.disable"}
!14 = distinct !{!14, !10}
!15 = !{!16, !16, i64 0}
!16 = !{!"vtable pointer", !8, i64 0}
!17 = !{!18, !19, i64 240}
!18 = !{!"_ZTSSt9basic_iosIcSt11char_traitsIcEE", !19, i64 216, !7, i64 224, !20, i64 225, !19, i64 232, !19, i64 240, !19, i64 248, !19, i64 256}
!19 = !{!"any pointer", !7, i64 0}
!20 = !{!"bool", !7, i64 0}
!21 = !{!22, !7, i64 56}
!22 = !{!"_ZTSSt5ctypeIcE", !19, i64 16, !20, i64 24, !19, i64 32, !19, i64 40, !19, i64 48, !7, i64 56, !7, i64 57, !7, i64 313, !7, i64 569}
!23 = !{!7, !7, i64 0}
!24 = distinct !{!24, !10}
